; Function Attrs: mustprogress nofree norecurse nosync nounwind willreturn memory(read, argmem: readwrite, inaccessiblemem: none) uwtable
define hidden noundef ptr @_ZN6Assimp7OpenGEX15OpenGEXImporter7popNodeEv(ptr nocapture noundef nonnull align 8 dereferenceable(776) %this) local_unnamed_addr #12 align 2 {
entry:
  %m_nodeStack = getelementptr inbounds i8, ptr %this, i64 728
  %0 = load ptr, ptr %m_nodeStack, align 8
  %_M_finish.i.i = getelementptr inbounds i8, ptr %this, i64 736
  %1 = load ptr, ptr %_M_finish.i.i, align 8
  %cmp.i.i = icmp eq ptr %0, %1
  br i1 %cmp.i.i, label %return, label %_ZNK6Assimp7OpenGEX15OpenGEXImporter3topEv.exit

_ZNK6Assimp7OpenGEX15OpenGEXImporter3topEv.exit:  ; preds = %entry
  %add.ptr.i.i.i = getelementptr inbounds i8, ptr %1, i64 -8
  %2 = load ptr, ptr %add.ptr.i.i.i, align 8
  %incdec.ptr.i = getelementptr inbounds i8, ptr %1, i64 -8
  store ptr %incdec.ptr.i, ptr %_M_finish.i.i, align 8
  br label %return

return:                                           ; preds = %entry, %_ZNK6Assimp7OpenGEX15OpenGEXImporter3topEv.exit
  %retval.0 = phi ptr [ %2, %_ZNK6Assimp7OpenGEX15OpenGEXImporter3topEv.exit ], [ null, %entry ]
  ret ptr %retval.0
}